; Function Attrs: nounwind sspstrong uwtable
define internal i64 @rb_gzreader_each_byte(i64 noundef %0) #0 {
  %2 = tail call i32 @rb_block_given_p() #18
  %.not = icmp eq i32 %2, 0
  br i1 %.not, label %6, label %.preheader

.preheader:                                       ; preds = %1
  %3 = tail call ptr @rb_check_typeddata(i64 noundef %0, ptr noundef nonnull @gzfile_data_type) #18
  %4 = load i64, ptr %3, align 8, !tbaa !113
  %5 = and i64 %4, 1
  %.not.i.i5 = icmp eq i64 %5, 0
  br i1 %.not.i.i5, label %._crit_edge, label %get_gzfile.exit.i

6:                                                ; preds = %1
  %7 = tail call i64 @rb_frame_this_func() #18
  %8 = tail call i64 @rb_id2sym(i64 noundef %7) #18
  %9 = tail call i64 @rb_enumeratorize_with_size(i64 noundef %0, i64 noundef %8, i32 noundef 0, ptr noundef null, ptr noundef null) #18
  br label %rb_gzreader_getbyte.exit.thread

._crit_edge:                                      ; preds = %rb_gzreader_getbyte.exit, %.preheader
  %10 = load i64, ptr @cGzError, align 8, !tbaa !6
  tail call void (i64, ptr, ...) @rb_raise(i64 noundef %10, ptr noundef nonnull @.str.165) #19
  unreachable

get_gzfile.exit.i:                                ; preds = %.preheader, %rb_gzreader_getbyte.exit
  %11 = phi ptr [ %25, %rb_gzreader_getbyte.exit ], [ %3, %.preheader ]
  %12 = tail call fastcc i64 @gzfile_read(ptr noundef nonnull %11, i64 noundef 1, i64 noundef 4)
  %13 = icmp eq i64 %12, 4
  br i1 %13, label %rb_gzreader_getbyte.exit.thread, label %14

14:                                               ; preds = %get_gzfile.exit.i
  %15 = inttoptr i64 %12 to ptr
  %16 = load i64, ptr %15, align 8, !tbaa !16, !noalias !184
  %17 = and i64 %16, 8192
  %.not.i.i.i = icmp eq i64 %17, 0
  %18 = getelementptr inbounds nuw i8, ptr %15, i64 24
  br i1 %.not.i.i.i, label %rb_gzreader_getbyte.exit, label %19

19:                                               ; preds = %14
  %.sroa.2.0.copyload.i.i = load ptr, ptr %18, align 8
  br label %rb_gzreader_getbyte.exit

rb_gzreader_getbyte.exit:                         ; preds = %19, %14
  %.sroa.2.0.i.i = phi ptr [ %.sroa.2.0.copyload.i.i, %19 ], [ %18, %14 ]
  %20 = load i8, ptr %.sroa.2.0.i.i, align 1, !tbaa !149
  %21 = zext i8 %20 to i64
  %22 = shl nuw nsw i64 %21, 1
  %23 = or disjoint i64 %22, 1
  %24 = tail call i64 @rb_yield(i64 noundef %23) #18
  %25 = tail call ptr @rb_check_typeddata(i64 noundef %0, ptr noundef nonnull @gzfile_data_type) #18
  %26 = load i64, ptr %25, align 8, !tbaa !113
  %27 = and i64 %26, 1
  %.not.i.i = icmp eq i64 %27, 0
  br i1 %.not.i.i, label %._crit_edge, label %get_gzfile.exit.i, !llvm.loop !187

rb_gzreader_getbyte.exit.thread:                  ; preds = %get_gzfile.exit.i, %6
  %.0 = phi i64 [ %9, %6 ], [ 4, %get_gzfile.exit.i ]
  ret i64 %.0
}